target datalayout = "e-m:e-p270:32:32-p271:32:32-p272:64:64-i64:64-i128:128-f80:128-n8:16:32:64-S128"
target triple = "x86_64-pc-linux-gnu"

%struct.GCRef = type { i64 }
%struct.jit_State = type { %struct.GCtrace, ptr, ptr, ptr, ptr, ptr, ptr, i32, i32, i32, i8, i8, %struct.IRType1, i8, %struct.FoldState, ptr, i32, i32, i32, i32, i32, i32, i32, [1 x i32], [5 x %union.TValue], [3 x %union.TValue], ptr, i32, i32, i32, i32, ptr, ptr, i32, i32, i8, ptr, i32, i32, i16, [101 x i16], [258 x i32], [15 x i32], [16 x ptr], [64 x %struct.HotPenalty], i32, [16 x %struct.BPropEntry], i32, %struct.ScEvEntry, ptr, i32, i32, i32, ptr, i32, i32, ptr, ptr, ptr, i64, i64, %union.TValue, ptr, i32, i32 }
%struct.GCtrace = type { %struct.GCRef, i8, i8, i16, i32, i32, %struct.GCRef, ptr, i32, i32, ptr, ptr, %struct.GCRef, %struct.MRef, i32, i32, ptr, i32, i16, i16, i16, i16, i16, i16, i16, i8, i8, i8, i8 }
%struct.MRef = type { i64 }
%struct.IRType1 = type { i8 }
%struct.FoldState = type { %union.IRIns, [2 x %union.IRIns], [2 x %union.IRIns] }
%union.IRIns = type { %struct.GCRef }
%struct.HotPenalty = type { %struct.MRef, i16, i16 }
%struct.BPropEntry = type { i16, i16, i32 }
%struct.ScEvEntry = type { %struct.MRef, i16, i16, i16, i16, %struct.IRType1, i8 }
%union.TValue = type { i64 }
%struct.anon.2 = type { i16, i16, i16, i16 }
%struct.RecordFFData = type { ptr, i64, i32 }
%struct.GCudata = type { %struct.GCRef, i8, i8, i8, i8, %struct.GCRef, i32, %struct.GCRef, i32 }

; Function Attrs: alwaysinline nounwind uwtable
define internal void @recff_sbufx_set_ptr(ptr noundef %0, i32 noundef %1, i32 noundef %2, i32 noundef %3) #1 {
  %5 = alloca ptr, align 8
  %6 = alloca i32, align 4
  %7 = alloca i32, align 4
  %8 = alloca i32, align 4
  %9 = alloca i32, align 4
  store ptr %0, ptr %5, align 8, !tbaa !4
  store i32 %1, ptr %6, align 4, !tbaa !9
  store i32 %2, ptr %7, align 4, !tbaa !9
  store i32 %3, ptr %8, align 4, !tbaa !9
  call void @llvm.lifetime.start.p0(i64 4, ptr %9) #9
  %10 = load ptr, ptr %5, align 8, !tbaa !4
  %11 = load i32, ptr %6, align 4, !tbaa !9
  %12 = trunc i32 %11 to i16
  %13 = load i32, ptr %7, align 4, !tbaa !9
  %14 = trunc i32 %13 to i16
  call void @lj_ir_set_(ptr noundef %10, i16 noundef zeroext 15881, i16 noundef zeroext %12, i16 noundef zeroext %14)
  %15 = load ptr, ptr %5, align 8, !tbaa !4
  %16 = call i32 @lj_opt_fold(ptr noundef %15)
  store i32 %16, ptr %9, align 4, !tbaa !9
  %17 = load ptr, ptr %5, align 8, !tbaa !4
  %18 = load i32, ptr %9, align 4, !tbaa !9
  %19 = trunc i32 %18 to i16
  %20 = load i32, ptr %8, align 4, !tbaa !9
  %21 = trunc i32 %20 to i16
  call void @lj_ir_set_(ptr noundef %17, i16 noundef zeroext 19721, i16 noundef zeroext %19, i16 noundef zeroext %21)
  %22 = load ptr, ptr %5, align 8, !tbaa !4
  %23 = call i32 @lj_opt_fold(ptr noundef %22)
  call void @llvm.lifetime.end.p0(i64 4, ptr %9) #9
  ret void
}

; Function Attrs: alwaysinline nounwind uwtable
define internal void @lj_ir_set_(ptr noundef %0, i16 noundef zeroext %1, i16 noundef zeroext %2, i16 noundef zeroext %3) #1 {
  %5 = alloca ptr, align 8
  %6 = alloca i16, align 2
  %7 = alloca i16, align 2
  %8 = alloca i16, align 2
  store ptr %0, ptr %5, align 8, !tbaa !4
  store i16 %1, ptr %6, align 2, !tbaa !14
  store i16 %2, ptr %7, align 2, !tbaa !14
  store i16 %3, ptr %8, align 2, !tbaa !14
  %9 = load i16, ptr %6, align 2, !tbaa !14
  %10 = load ptr, ptr %5, align 8, !tbaa !4
  %11 = getelementptr inbounds nuw %struct.jit_State, ptr %10, i32 0, i32 14
  %12 = getelementptr inbounds nuw %struct.FoldState, ptr %11, i32 0, i32 0
  %13 = getelementptr inbounds nuw %struct.anon.2, ptr %12, i32 0, i32 2
  store i16 %9, ptr %13, align 4, !tbaa !13
  %14 = load i16, ptr %7, align 2, !tbaa !14
  %15 = load ptr, ptr %5, align 8, !tbaa !4
  %16 = getelementptr inbounds nuw %struct.jit_State, ptr %15, i32 0, i32 14
  %17 = getelementptr inbounds nuw %struct.FoldState, ptr %16, i32 0, i32 0
  %18 = getelementptr inbounds nuw %struct.anon.2, ptr %17, i32 0, i32 0
  store i16 %14, ptr %18, align 8, !tbaa !13
  %19 = load i16, ptr %8, align 2, !tbaa !14
  %20 = load ptr, ptr %5, align 8, !tbaa !4
  %21 = getelementptr inbounds nuw %struct.jit_State, ptr %20, i32 0, i32 14
  %22 = getelementptr inbounds nuw %struct.FoldState, ptr %21, i32 0, i32 0
  %23 = getelementptr inbounds nuw %struct.anon.2, ptr %22, i32 0, i32 1
  store i16 %19, ptr %23, align 2, !tbaa !13
  ret void
}

; Function Attrs: alwaysinline nounwind uwtable
define internal i32 @recff_sbufx_len(ptr noundef %0, i32 noundef %1, i32 noundef %2) #1 {
  %4 = alloca ptr, align 8
  %5 = alloca i32, align 4
  %6 = alloca i32, align 4
  %7 = alloca i32, align 4
  store ptr %0, ptr %4, align 8, !tbaa !4
  store i32 %1, ptr %5, align 4, !tbaa !9
  store i32 %2, ptr %6, align 4, !tbaa !9
  call void @llvm.lifetime.start.p0(i64 4, ptr %7) #9
  %8 = load ptr, ptr %4, align 8, !tbaa !4
  %9 = load i32, ptr %6, align 4, !tbaa !9
  %10 = trunc i32 %9 to i16
  %11 = load i32, ptr %5, align 4, !tbaa !9
  %12 = trunc i32 %11 to i16
  call void @lj_ir_set_(ptr noundef %8, i16 noundef zeroext 10773, i16 noundef zeroext %10, i16 noundef zeroext %12)
  %13 = load ptr, ptr %4, align 8, !tbaa !4
  %14 = call i32 @lj_opt_fold(ptr noundef %13)
  store i32 %14, ptr %7, align 4, !tbaa !9
  %15 = load ptr, ptr %4, align 8, !tbaa !4
  %16 = load i32, ptr %7, align 4, !tbaa !9
  %17 = trunc i32 %16 to i16
  call void @lj_ir_set_(ptr noundef %15, i16 noundef zeroext 23315, i16 noundef zeroext %17, i16 noundef zeroext 4725)
  %18 = load ptr, ptr %4, align 8, !tbaa !4
  %19 = call i32 @lj_opt_fold(ptr noundef %18)
  store i32 %19, ptr %7, align 4, !tbaa !9
  %20 = load i32, ptr %7, align 4, !tbaa !9
  call void @llvm.lifetime.end.p0(i64 4, ptr %7) #9
  ret i32 %20
}

; Function Attrs: alwaysinline nounwind uwtable
define internal i32 @recff_sbufx_get_ptr(ptr noundef %0, i32 noundef %1, i32 noundef %2) #1 {
  %4 = alloca ptr, align 8
  %5 = alloca i32, align 4
  %6 = alloca i32, align 4
  store ptr %0, ptr %4, align 8, !tbaa !4
  store i32 %1, ptr %5, align 4, !tbaa !9
  store i32 %2, ptr %6, align 4, !tbaa !9
  %7 = load ptr, ptr %4, align 8, !tbaa !4
  %8 = load i32, ptr %5, align 4, !tbaa !9
  %9 = trunc i32 %8 to i16
  %10 = load i32, ptr %6, align 4, !tbaa !9
  %11 = trunc i32 %10 to i16
  call void @lj_ir_set_(ptr noundef %7, i16 noundef zeroext 17673, i16 noundef zeroext %9, i16 noundef zeroext %11)
  %12 = load ptr, ptr %4, align 8, !tbaa !4
  %13 = call i32 @lj_opt_fold(ptr noundef %12)
  ret i32 %13
}

; Function Attrs: nounwind uwtable
define internal i32 @recff_sbufx_check(ptr noundef %0, ptr noundef %1, i64 noundef %2) #0 {
  %4 = alloca ptr, align 8
  %5 = alloca ptr, align 8
  %6 = alloca i64, align 8
  %7 = alloca i32, align 4
  %8 = alloca i32, align 4
  store ptr %0, ptr %4, align 8, !tbaa !4
  store ptr %1, ptr %5, align 8, !tbaa !46
  store i64 %2, ptr %6, align 8, !tbaa !60
  call void @llvm.lifetime.start.p0(i64 4, ptr %7) #9
  call void @llvm.lifetime.start.p0(i64 4, ptr %8) #9
  %9 = load ptr, ptr %4, align 8, !tbaa !4
  %10 = getelementptr inbounds nuw %struct.jit_State, ptr %9, i32 0, i32 6
  %11 = load ptr, ptr %10, align 8, !tbaa !41
  %12 = load i64, ptr %6, align 8, !tbaa !60
  %13 = getelementptr inbounds i32, ptr %11, i64 %12
  %14 = load i32, ptr %13, align 4, !tbaa !9
  store i32 %14, ptr %8, align 4, !tbaa !9
  %15 = load ptr, ptr %5, align 8, !tbaa !46
  %16 = getelementptr inbounds nuw %struct.RecordFFData, ptr %15, i32 0, i32 0
  %17 = load ptr, ptr %16, align 8, !tbaa !40
  %18 = load i64, ptr %6, align 8, !tbaa !60
  %19 = getelementptr inbounds %union.TValue, ptr %17, i64 %18
  %20 = load i64, ptr %19, align 8, !tbaa !13
  %21 = ashr i64 %20, 47
  %22 = trunc i64 %21 to i32
  %23 = icmp eq i32 %22, -13
  br i1 %23, label %24, label %38

24:                                               ; preds = %3
  %25 = load ptr, ptr %5, align 8, !tbaa !46
  %26 = getelementptr inbounds nuw %struct.RecordFFData, ptr %25, i32 0, i32 0
  %27 = load ptr, ptr %26, align 8, !tbaa !40
  %28 = load i64, ptr %6, align 8, !tbaa !60
  %29 = getelementptr inbounds %union.TValue, ptr %27, i64 %28
  %30 = getelementptr inbounds nuw %struct.GCRef, ptr %29, i32 0, i32 0
  %31 = load i64, ptr %30, align 8, !tbaa !13
  %32 = and i64 %31, 140737488355327
  %33 = inttoptr i64 %32 to ptr
  %34 = getelementptr inbounds nuw %struct.GCudata, ptr %33, i32 0, i32 3
  %35 = load i8, ptr %34, align 2, !tbaa !13
  %36 = zext i8 %35 to i32
  %37 = icmp eq i32 %36, 3
  br i1 %37, label %40, label %38

38:                                               ; preds = %24, %3
  %39 = load ptr, ptr %4, align 8, !tbaa !4
  call void @lj_trace_err(ptr noundef %39, i32 noundef 11) #10
  unreachable

40:                                               ; preds = %24
  %41 = load ptr, ptr %4, align 8, !tbaa !4
  %42 = load i32, ptr %8, align 4, !tbaa !9
  %43 = trunc i32 %42 to i16
  call void @lj_ir_set_(ptr noundef %41, i16 noundef zeroext 17680, i16 noundef zeroext %43, i16 noundef zeroext 12)
  %44 = load ptr, ptr %4, align 8, !tbaa !4
  %45 = call i32 @lj_opt_fold(ptr noundef %44)
  store i32 %45, ptr %7, align 4, !tbaa !9
  %46 = load ptr, ptr %4, align 8, !tbaa !4
  %47 = load i32, ptr %7, align 4, !tbaa !9
  %48 = trunc i32 %47 to i16
  %49 = load ptr, ptr %4, align 8, !tbaa !4
  %50 = call i32 @lj_ir_kint(ptr noundef %49, i32 noundef 3)
  %51 = trunc i32 %50 to i16
  call void @lj_ir_set_(ptr noundef %46, i16 noundef zeroext 2195, i16 noundef zeroext %48, i16 noundef zeroext %51)
  %52 = load ptr, ptr %4, align 8, !tbaa !4
  %53 = call i32 @lj_opt_fold(ptr noundef %52)
  %54 = load ptr, ptr %4, align 8, !tbaa !4
  %55 = getelementptr inbounds nuw %struct.jit_State, ptr %54, i32 0, i32 11
  store i8 1, ptr %55, align 1, !tbaa !58
  %56 = load i32, ptr %8, align 4, !tbaa !9
  call void @llvm.lifetime.end.p0(i64 4, ptr %8) #9
  call void @llvm.lifetime.end.p0(i64 4, ptr %7) #9
  ret i32 %56
}

; Function Attrs: nounwind uwtable
define internal void @recff_buffer_method_get(ptr noundef %0, ptr noundef %1) #0 {
  %3 = alloca ptr, align 8
  %4 = alloca ptr, align 8
  %5 = alloca i32, align 4
  %6 = alloca i32, align 4
  %7 = alloca i32, align 4
  %8 = alloca i32, align 4
  %9 = alloca i64, align 8
  %10 = alloca i32, align 4
  %11 = alloca i32, align 4
  store ptr %0, ptr %3, align 8, !tbaa !4
  store ptr %1, ptr %4, align 8, !tbaa !46
  call void @llvm.lifetime.start.p0(i64 4, ptr %5) #9
  %12 = load ptr, ptr %3, align 8, !tbaa !4
  %13 = load ptr, ptr %4, align 8, !tbaa !46
  %14 = call i32 @recff_sbufx_check(ptr noundef %12, ptr noundef %13, i64 noundef 0)
  store i32 %14, ptr %5, align 4, !tbaa !9
  call void @llvm.lifetime.start.p0(i64 4, ptr %6) #9
  %15 = load ptr, ptr %3, align 8, !tbaa !4
  %16 = load i32, ptr %5, align 4, !tbaa !9
  %17 = call i32 @recff_sbufx_get_ptr(ptr noundef %15, i32 noundef %16, i32 noundef 19)
  store i32 %17, ptr %6, align 4, !tbaa !9
  call void @llvm.lifetime.start.p0(i64 4, ptr %7) #9
  %18 = load ptr, ptr %3, align 8, !tbaa !4
  %19 = load i32, ptr %5, align 4, !tbaa !9
  %20 = call i32 @recff_sbufx_get_ptr(ptr noundef %18, i32 noundef %19, i32 noundef 14)
  store i32 %20, ptr %7, align 4, !tbaa !9
  call void @llvm.lifetime.start.p0(i64 4, ptr %8) #9
  call void @llvm.lifetime.start.p0(i64 8, ptr %9) #9
  %21 = load ptr, ptr %3, align 8, !tbaa !4
  %22 = getelementptr inbounds nuw %struct.jit_State, ptr %21, i32 0, i32 6
  %23 = load ptr, ptr %22, align 8, !tbaa !41
  %24 = getelementptr inbounds i32, ptr %23, i64 1
  %25 = load i32, ptr %24, align 4, !tbaa !9
  %26 = icmp ne i32 %25, 0
  br i1 %26, label %36, label %27

27:                                               ; preds = %2
  %28 = load ptr, ptr %3, align 8, !tbaa !4
  %29 = getelementptr inbounds nuw %struct.jit_State, ptr %28, i32 0, i32 6
  %30 = load ptr, ptr %29, align 8, !tbaa !41
  %31 = getelementptr inbounds i32, ptr %30, i64 1
  store i32 32767, ptr %31, align 4, !tbaa !9
  %32 = load ptr, ptr %3, align 8, !tbaa !4
  %33 = getelementptr inbounds nuw %struct.jit_State, ptr %32, i32 0, i32 6
  %34 = load ptr, ptr %33, align 8, !tbaa !41
  %35 = getelementptr inbounds i32, ptr %34, i64 2
  store i32 0, ptr %35, align 4, !tbaa !9
  br label %36

36:                                               ; preds = %27, %2
  store i64 0, ptr %9, align 8, !tbaa !60
  br label %37

37:                                               ; preds = %63, %36
  %38 = load ptr, ptr %3, align 8, !tbaa !4
  %39 = getelementptr inbounds nuw %struct.jit_State, ptr %38, i32 0, i32 6
  %40 = load ptr, ptr %39, align 8, !tbaa !41
  %41 = load i64, ptr %9, align 8, !tbaa !60
  %42 = add nsw i64 %41, 1
  %43 = getelementptr inbounds i32, ptr %40, i64 %42
  %44 = load i32, ptr %43, align 4, !tbaa !9
  store i32 %44, ptr %8, align 4, !tbaa !9
  %45 = icmp ne i32 %44, 0
  br i1 %45, label %46, label %66

46:                                               ; preds = %37
  %47 = load i32, ptr %8, align 4, !tbaa !9
  %48 = and i32 %47, 520093696
  %49 = icmp eq i32 %48, 0
  br i1 %49, label %62, label %50

50:                                               ; preds = %46
  %51 = load ptr, ptr %3, align 8, !tbaa !4
  %52 = load ptr, ptr %4, align 8, !tbaa !46
  %53 = load i64, ptr %9, align 8, !tbaa !60
  %54 = add nsw i64 %53, 1
  %55 = call i32 @recff_sbufx_checkint(ptr noundef %51, ptr noundef %52, i64 noundef %54)
  %56 = load ptr, ptr %3, align 8, !tbaa !4
  %57 = getelementptr inbounds nuw %struct.jit_State, ptr %56, i32 0, i32 6
  %58 = load ptr, ptr %57, align 8, !tbaa !41
  %59 = load i64, ptr %9, align 8, !tbaa !60
  %60 = add nsw i64 %59, 1
  %61 = getelementptr inbounds i32, ptr %58, i64 %60
  store i32 %55, ptr %61, align 4, !tbaa !9
  br label %62

62:                                               ; preds = %50, %46
  br label %63

63:                                               ; preds = %62
  %64 = load i64, ptr %9, align 8, !tbaa !60
  %65 = add nsw i64 %64, 1
  store i64 %65, ptr %9, align 8, !tbaa !60
  br label %37, !llvm.loop !85

66:                                               ; preds = %37
  store i64 0, ptr %9, align 8, !tbaa !60
  br label %67

67:                                               ; preds = %130, %66
  %68 = load ptr, ptr %3, align 8, !tbaa !4
  %69 = getelementptr inbounds nuw %struct.jit_State, ptr %68, i32 0, i32 6
  %70 = load ptr, ptr %69, align 8, !tbaa !41
  %71 = load i64, ptr %9, align 8, !tbaa !60
  %72 = add nsw i64 %71, 1
  %73 = getelementptr inbounds i32, ptr %70, i64 %72
  %74 = load i32, ptr %73, align 4, !tbaa !9
  store i32 %74, ptr %8, align 4, !tbaa !9
  %75 = icmp ne i32 %74, 0
  br i1 %75, label %76, label %133

76:                                               ; preds = %67
  call void @llvm.lifetime.start.p0(i64 4, ptr %10) #9
  %77 = load ptr, ptr %3, align 8, !tbaa !4
  %78 = load i32, ptr %6, align 4, !tbaa !9
  %79 = load i32, ptr %7, align 4, !tbaa !9
  %80 = call i32 @recff_sbufx_len(ptr noundef %77, i32 noundef %78, i32 noundef %79)
  store i32 %80, ptr %10, align 4, !tbaa !9
  %81 = load i32, ptr %8, align 4, !tbaa !9
  %82 = and i32 %81, 520093696
  %83 = icmp eq i32 %82, 0
  br i1 %83, label %84, label %98

84:                                               ; preds = %76
  %85 = load ptr, ptr %3, align 8, !tbaa !4
  %86 = load i32, ptr %6, align 4, !tbaa !9
  %87 = trunc i32 %86 to i16
  %88 = load i32, ptr %10, align 4, !tbaa !9
  %89 = trunc i32 %88 to i16
  call void @lj_ir_set_(ptr noundef %85, i16 noundef zeroext 20484, i16 noundef zeroext %87, i16 noundef zeroext %89)
  %90 = load ptr, ptr %3, align 8, !tbaa !4
  %91 = call i32 @lj_opt_fold(ptr noundef %90)
  %92 = load ptr, ptr %3, align 8, !tbaa !4
  %93 = getelementptr inbounds nuw %struct.jit_State, ptr %92, i32 0, i32 6
  %94 = load ptr, ptr %93, align 8, !tbaa !41
  %95 = load i64, ptr %9, align 8, !tbaa !60
  %96 = getelementptr inbounds i32, ptr %94, i64 %95
  store i32 %91, ptr %96, align 4, !tbaa !9
  %97 = load i32, ptr %7, align 4, !tbaa !9
  store i32 %97, ptr %6, align 4, !tbaa !9
  br label %126

98:                                               ; preds = %76
  call void @llvm.lifetime.start.p0(i64 4, ptr %11) #9
  %99 = load ptr, ptr %3, align 8, !tbaa !4
  %100 = load i32, ptr %10, align 4, !tbaa !9
  %101 = trunc i32 %100 to i16
  %102 = load i32, ptr %8, align 4, !tbaa !9
  %103 = trunc i32 %102 to i16
  call void @lj_ir_set_(ptr noundef %99, i16 noundef zeroext 12819, i16 noundef zeroext %101, i16 noundef zeroext %103)
  %104 = load ptr, ptr %3, align 8, !tbaa !4
  %105 = call i32 @lj_opt_fold(ptr noundef %104)
  store i32 %105, ptr %10, align 4, !tbaa !9
  %106 = load ptr, ptr %3, align 8, !tbaa !4
  %107 = load i32, ptr %6, align 4, !tbaa !9
  %108 = trunc i32 %107 to i16
  %109 = load i32, ptr %10, align 4, !tbaa !9
  %110 = trunc i32 %109 to i16
  call void @lj_ir_set_(ptr noundef %106, i16 noundef zeroext 10505, i16 noundef zeroext %108, i16 noundef zeroext %110)
  %111 = load ptr, ptr %3, align 8, !tbaa !4
  %112 = call i32 @lj_opt_fold(ptr noundef %111)
  store i32 %112, ptr %11, align 4, !tbaa !9
  %113 = load ptr, ptr %3, align 8, !tbaa !4
  %114 = load i32, ptr %6, align 4, !tbaa !9
  %115 = trunc i32 %114 to i16
  %116 = load i32, ptr %10, align 4, !tbaa !9
  %117 = trunc i32 %116 to i16
  call void @lj_ir_set_(ptr noundef %113, i16 noundef zeroext 20484, i16 noundef zeroext %115, i16 noundef zeroext %117)
  %118 = load ptr, ptr %3, align 8, !tbaa !4
  %119 = call i32 @lj_opt_fold(ptr noundef %118)
  %120 = load ptr, ptr %3, align 8, !tbaa !4
  %121 = getelementptr inbounds nuw %struct.jit_State, ptr %120, i32 0, i32 6
  %122 = load ptr, ptr %121, align 8, !tbaa !41
  %123 = load i64, ptr %9, align 8, !tbaa !60
  %124 = getelementptr inbounds i32, ptr %122, i64 %123
  store i32 %119, ptr %124, align 4, !tbaa !9
  %125 = load i32, ptr %11, align 4, !tbaa !9
  store i32 %125, ptr %6, align 4, !tbaa !9
  call void @llvm.lifetime.end.p0(i64 4, ptr %11) #9
  br label %126

126:                                              ; preds = %98, %84
  %127 = load ptr, ptr %3, align 8, !tbaa !4
  %128 = load i32, ptr %5, align 4, !tbaa !9
  %129 = load i32, ptr %6, align 4, !tbaa !9
  call void @recff_sbufx_set_ptr(ptr noundef %127, i32 noundef %128, i32 noundef 19, i32 noundef %129)
  call void @llvm.lifetime.end.p0(i64 4, ptr %10) #9
  br label %130

130:                                              ; preds = %126
  %131 = load i64, ptr %9, align 8, !tbaa !60
  %132 = add nsw i64 %131, 1
  store i64 %132, ptr %9, align 8, !tbaa !60
  br label %67, !llvm.loop !86

133:                                              ; preds = %67
  %134 = load i64, ptr %9, align 8, !tbaa !60
  %135 = load ptr, ptr %4, align 8, !tbaa !46
  %136 = getelementptr inbounds nuw %struct.RecordFFData, ptr %135, i32 0, i32 1
  store i64 %134, ptr %136, align 8, !tbaa !36
  call void @llvm.lifetime.end.p0(i64 8, ptr %9) #9
  call void @llvm.lifetime.end.p0(i64 4, ptr %8) #9
  call void @llvm.lifetime.end.p0(i64 4, ptr %7) #9
  call void @llvm.lifetime.end.p0(i64 4, ptr %6) #9
  call void @llvm.lifetime.end.p0(i64 4, ptr %5) #9
  ret void
}