; Function Attrs: nounwind uwtable
define internal void @recff_buffer_method_get(ptr noundef %0, ptr noundef captures(none) %1) #0 {
  %.val = load ptr, ptr %1, align 8, !tbaa !36
  %3 = getelementptr inbounds nuw i8, ptr %0, i64 160
  %4 = load ptr, ptr %3, align 8, !tbaa !37
  %5 = load i32, ptr %4, align 4, !tbaa !39
  %6 = load i64, ptr %.val, align 8, !tbaa !4
  %.mask.i = and i64 %6, -140737488355328
  %7 = icmp eq i64 %.mask.i, -1829587348619264
  br i1 %7, label %8, label %14

8:                                                ; preds = %2
  %9 = and i64 %6, 140737488355327
  %10 = inttoptr i64 %9 to ptr
  %11 = getelementptr inbounds nuw i8, ptr %10, i64 10
  %12 = load i8, ptr %11, align 2, !tbaa !4
  %13 = icmp eq i8 %12, 3
  br i1 %13, label %recff_sbufx_check.exit, label %14

14:                                               ; preds = %8, %2
  tail call void @lj_trace_err(ptr noundef nonnull %0, i32 noundef 11) #10
  unreachable

recff_sbufx_check.exit:                           ; preds = %8
  %15 = trunc i32 %5 to i16
  %16 = getelementptr inbounds nuw i8, ptr %0, i64 184
  %17 = getelementptr inbounds nuw i8, ptr %0, i64 188
  store i16 17680, ptr %17, align 4, !tbaa !4
  store i16 %15, ptr %16, align 8, !tbaa !4
  %18 = getelementptr inbounds nuw i8, ptr %0, i64 186
  store i16 12, ptr %18, align 2, !tbaa !4
  %19 = tail call i32 @lj_opt_fold(ptr noundef nonnull %0) #9
  %20 = trunc i32 %19 to i16
  %21 = tail call i32 @lj_ir_kint(ptr noundef nonnull %0, i32 noundef 3) #9
  %22 = trunc i32 %21 to i16
  store i16 2195, ptr %17, align 4, !tbaa !4
  store i16 %20, ptr %16, align 8, !tbaa !4
  store i16 %22, ptr %18, align 2, !tbaa !4
  %23 = tail call i32 @lj_opt_fold(ptr noundef nonnull %0) #9
  %24 = getelementptr inbounds nuw i8, ptr %0, i64 181
  store i8 1, ptr %24, align 1, !tbaa !54
  store i16 17673, ptr %17, align 4, !tbaa !4
  store i16 %15, ptr %16, align 8, !tbaa !4
  store i16 19, ptr %18, align 2, !tbaa !4
  %25 = tail call i32 @lj_opt_fold(ptr noundef nonnull %0) #9
  store i16 17673, ptr %17, align 4, !tbaa !4
  store i16 %15, ptr %16, align 8, !tbaa !4
  store i16 14, ptr %18, align 2, !tbaa !4
  %26 = tail call i32 @lj_opt_fold(ptr noundef nonnull %0) #9
  %27 = load ptr, ptr %3, align 8, !tbaa !37
  %28 = getelementptr inbounds nuw i8, ptr %27, i64 4
  %29 = load i32, ptr %28, align 4, !tbaa !39
  %.not = icmp eq i32 %29, 0
  br i1 %.not, label %30, label %.lr.ph.preheader

30:                                               ; preds = %recff_sbufx_check.exit
  store i32 32767, ptr %28, align 4, !tbaa !39
  %31 = getelementptr inbounds nuw i8, ptr %27, i64 8
  store i32 0, ptr %31, align 4, !tbaa !39
  br label %.lr.ph.preheader

.lr.ph.preheader:                                 ; preds = %recff_sbufx_check.exit, %30
  %.ph = phi i32 [ 32767, %30 ], [ %29, %recff_sbufx_check.exit ]
  br label %.lr.ph

.preheader:                                       ; preds = %42
  %.phi.trans.insert = getelementptr inbounds nuw i8, ptr %43, i64 4
  %.pre = load i32, ptr %.phi.trans.insert, align 4, !tbaa !39
  %.not5658 = icmp eq i32 %.pre, 0
  br i1 %.not5658, label %._crit_edge, label %.lr.ph61

.lr.ph61:                                         ; preds = %.preheader
  %32 = trunc i32 %26 to i16
  br label %47

.lr.ph:                                           ; preds = %.lr.ph.preheader, %42
  %33 = phi ptr [ %43, %42 ], [ %27, %.lr.ph.preheader ]
  %34 = phi i32 [ %46, %42 ], [ %.ph, %.lr.ph.preheader ]
  %35 = phi i64 [ %44, %42 ], [ 1, %.lr.ph.preheader ]
  %36 = and i32 %34, 520093696
  %37 = icmp eq i32 %36, 0
  br i1 %37, label %42, label %38

38:                                               ; preds = %.lr.ph
  %39 = tail call fastcc i32 @recff_sbufx_checkint(ptr noundef nonnull %0, ptr noundef nonnull %1, i64 noundef %35)
  %40 = load ptr, ptr %3, align 8, !tbaa !37
  %41 = getelementptr inbounds nuw i32, ptr %40, i64 %35
  store i32 %39, ptr %41, align 4, !tbaa !39
  br label %42

42:                                               ; preds = %.lr.ph, %38
  %43 = phi ptr [ %33, %.lr.ph ], [ %40, %38 ]
  %44 = add nuw nsw i64 %35, 1
  %45 = getelementptr inbounds nuw i32, ptr %43, i64 %44
  %46 = load i32, ptr %45, align 4, !tbaa !39
  %.not55 = icmp eq i32 %46, 0
  br i1 %.not55, label %.preheader, label %.lr.ph, !llvm.loop !72

47:                                               ; preds = %.lr.ph61, %69
  %48 = phi i32 [ %.pre, %.lr.ph61 ], [ %76, %69 ]
  %49 = phi i64 [ 1, %.lr.ph61 ], [ %74, %69 ]
  %.060 = phi i32 [ %25, %.lr.ph61 ], [ %.1, %69 ]
  %.15259 = phi i64 [ 0, %.lr.ph61 ], [ %49, %69 ]
  %50 = trunc i32 %.060 to i16
  store i16 10773, ptr %17, align 4, !tbaa !4
  store i16 %32, ptr %16, align 8, !tbaa !4
  store i16 %50, ptr %18, align 2, !tbaa !4
  %51 = tail call i32 @lj_opt_fold(ptr noundef nonnull %0) #9
  %52 = trunc i32 %51 to i16
  store i16 23315, ptr %17, align 4, !tbaa !4
  store i16 %52, ptr %16, align 8, !tbaa !4
  store i16 4725, ptr %18, align 2, !tbaa !4
  %53 = tail call i32 @lj_opt_fold(ptr noundef nonnull %0) #9
  %54 = and i32 %48, 520093696
  %55 = icmp eq i32 %54, 0
  %56 = trunc i32 %53 to i16
  br i1 %55, label %57, label %61

57:                                               ; preds = %47
  store i16 20484, ptr %17, align 4, !tbaa !4
  store i16 %50, ptr %16, align 8, !tbaa !4
  store i16 %56, ptr %18, align 2, !tbaa !4
  %58 = tail call i32 @lj_opt_fold(ptr noundef nonnull %0) #9
  %59 = load ptr, ptr %3, align 8, !tbaa !37
  %60 = getelementptr inbounds nuw i32, ptr %59, i64 %.15259
  store i32 %58, ptr %60, align 4, !tbaa !39
  br label %69

61:                                               ; preds = %47
  %62 = trunc i32 %48 to i16
  store i16 12819, ptr %17, align 4, !tbaa !4
  store i16 %56, ptr %16, align 8, !tbaa !4
  store i16 %62, ptr %18, align 2, !tbaa !4
  %63 = tail call i32 @lj_opt_fold(ptr noundef nonnull %0) #9
  %64 = trunc i32 %63 to i16
  store i16 10505, ptr %17, align 4, !tbaa !4
  store i16 %50, ptr %16, align 8, !tbaa !4
  store i16 %64, ptr %18, align 2, !tbaa !4
  %65 = tail call i32 @lj_opt_fold(ptr noundef nonnull %0) #9
  store i16 20484, ptr %17, align 4, !tbaa !4
  store i16 %50, ptr %16, align 8, !tbaa !4
  store i16 %64, ptr %18, align 2, !tbaa !4
  %66 = tail call i32 @lj_opt_fold(ptr noundef nonnull %0) #9
  %67 = load ptr, ptr %3, align 8, !tbaa !37
  %68 = getelementptr inbounds nuw i32, ptr %67, i64 %.15259
  store i32 %66, ptr %68, align 4, !tbaa !39
  %.pre62 = trunc i32 %65 to i16
  br label %69

69:                                               ; preds = %61, %57
  %.pre-phi = phi i16 [ %.pre62, %61 ], [ %32, %57 ]
  %.1 = phi i32 [ %65, %61 ], [ %26, %57 ]
  store i16 15881, ptr %17, align 4, !tbaa !4
  store i16 %15, ptr %16, align 8, !tbaa !4
  store i16 19, ptr %18, align 2, !tbaa !4
  %70 = tail call i32 @lj_opt_fold(ptr noundef nonnull %0) #9
  %71 = trunc i32 %70 to i16
  store i16 19721, ptr %17, align 4, !tbaa !4
  store i16 %71, ptr %16, align 8, !tbaa !4
  store i16 %.pre-phi, ptr %18, align 2, !tbaa !4
  %72 = tail call i32 @lj_opt_fold(ptr noundef nonnull %0) #9
  %73 = load ptr, ptr %3, align 8, !tbaa !37
  %74 = add nuw nsw i64 %49, 1
  %75 = getelementptr inbounds nuw i32, ptr %73, i64 %74
  %76 = load i32, ptr %75, align 4, !tbaa !39
  %.not56 = icmp eq i32 %76, 0
  br i1 %.not56, label %._crit_edge, label %47, !llvm.loop !73

._crit_edge:                                      ; preds = %69, %.preheader
  %.152.lcssa = phi i64 [ 0, %.preheader ], [ %49, %69 ]
  %77 = getelementptr inbounds nuw i8, ptr %1, i64 8
  store i64 %.152.lcssa, ptr %77, align 8, !tbaa !32
  ret void
}